target datalayout = "e-m:e-p270:32:32-p271:32:32-p272:64:64-i64:64-i128:128-f80:128-n8:16:32:64-S128"
target triple = "x86_64-pc-linux-gnu"

%struct.Aig_Obj_t_ = type { %union.anon, ptr, ptr, i64, i32, i32, %union.anon.0 }
%union.anon = type { ptr }
%union.anon.0 = type { ptr }
%struct.Aig_Man_t_ = type { ptr, ptr, ptr, ptr, ptr, ptr, ptr, %struct.Aig_Obj_t_, i32, i32, i32, i32, i32, i32, [7 x i32], i32, ptr, i32, ptr, i32, ptr, i32, i32, i32, ptr, i32, i32, i32, i32, i32, ptr, ptr, i32, ptr, ptr, i32, ptr, ptr, i32, i32, i32, ptr, ptr, ptr, ptr, ptr, ptr, ptr, ptr, ptr, ptr, ptr, ptr, ptr, ptr, i32, ptr, ptr, ptr, ptr, i32, i64, i64, i64, ptr, ptr }
%struct.Vec_Ptr_t_ = type { i32, i32, ptr }
%struct.Abc_Cex_t_ = type { i32, i32, i32, i32, i32, [0 x i32] }

@.str.10 = private unnamed_addr constant [57 x i8] c"Fra_SmlGetCounterExample(): Counter-example is invalid.\0A\00", align 1

; Function Attrs: inlinehint nounwind uwtable
define internal void @Abc_InfoSetBit(ptr noundef %0, i32 noundef %1) #2 {
  %3 = alloca ptr, align 8
  %4 = alloca i32, align 4
  store ptr %0, ptr %3, align 8, !tbaa !29
  store i32 %1, ptr %4, align 4, !tbaa !8
  %5 = load i32, ptr %4, align 4, !tbaa !8
  %6 = and i32 %5, 31
  %7 = shl i32 1, %6
  %8 = load ptr, ptr %3, align 8, !tbaa !29
  %9 = load i32, ptr %4, align 4, !tbaa !8
  %10 = ashr i32 %9, 5
  %11 = sext i32 %10 to i64
  %12 = getelementptr inbounds i32, ptr %8, i64 %11
  %13 = load i32, ptr %12, align 4, !tbaa !8
  %14 = or i32 %13, %7
  store i32 %14, ptr %12, align 4, !tbaa !8
  ret void
}

; Function Attrs: inlinehint nounwind uwtable
define internal ptr @Vec_PtrEntry(ptr noundef %0, i32 noundef %1) #2 {
  %3 = alloca ptr, align 8
  %4 = alloca i32, align 4
  store ptr %0, ptr %3, align 8, !tbaa !54
  store i32 %1, ptr %4, align 4, !tbaa !8
  %5 = load ptr, ptr %3, align 8, !tbaa !54
  %6 = getelementptr inbounds nuw %struct.Vec_Ptr_t_, ptr %5, i32 0, i32 2
  %7 = load ptr, ptr %6, align 8, !tbaa !57
  %8 = load i32, ptr %4, align 4, !tbaa !8
  %9 = sext i32 %8 to i64
  %10 = getelementptr inbounds ptr, ptr %7, i64 %9
  %11 = load ptr, ptr %10, align 8, !tbaa !58
  ret ptr %11
}

; Function Attrs: inlinehint nounwind uwtable
define internal i32 @Vec_PtrSize(ptr noundef %0) #2 {
  %2 = alloca ptr, align 8
  store ptr %0, ptr %2, align 8, !tbaa !54
  %3 = load ptr, ptr %2, align 8, !tbaa !54
  %4 = getelementptr inbounds nuw %struct.Vec_Ptr_t_, ptr %3, i32 0, i32 1
  %5 = load i32, ptr %4, align 4, !tbaa !55
  ret i32 %5
}

; Function Attrs: inlinehint nounwind uwtable
define internal i32 @Aig_ManCoNum(ptr noundef %0) #2 {
  %2 = alloca ptr, align 8
  store ptr %0, ptr %2, align 8, !tbaa !52
  %3 = load ptr, ptr %2, align 8, !tbaa !52
  %4 = getelementptr inbounds nuw %struct.Aig_Man_t_, ptr %3, i32 0, i32 14
  %5 = getelementptr inbounds [7 x i32], ptr %4, i64 0, i64 3
  %6 = load i32, ptr %5, align 4, !tbaa !8
  ret i32 %6
}

; Function Attrs: inlinehint nounwind uwtable
define internal i32 @Aig_ManRegNum(ptr noundef %0) #2 {
  %2 = alloca ptr, align 8
  store ptr %0, ptr %2, align 8, !tbaa !52
  %3 = load ptr, ptr %2, align 8, !tbaa !52
  %4 = getelementptr inbounds nuw %struct.Aig_Man_t_, ptr %3, i32 0, i32 8
  %5 = load i32, ptr %4, align 8, !tbaa !53
  ret i32 %5
}

; Function Attrs: inlinehint nounwind uwtable
define internal i32 @Aig_ManCiNum(ptr noundef %0) #2 {
  %2 = alloca ptr, align 8
  store ptr %0, ptr %2, align 8, !tbaa !52
  %3 = load ptr, ptr %2, align 8, !tbaa !52
  %4 = getelementptr inbounds nuw %struct.Aig_Man_t_, ptr %3, i32 0, i32 14
  %5 = getelementptr inbounds [7 x i32], ptr %4, i64 0, i64 2
  %6 = load i32, ptr %5, align 8, !tbaa !8
  ret i32 %6
}

; Function Attrs: nounwind uwtable
define ptr @Fra_SmlCopyCounterExample(ptr noundef %0, ptr noundef %1, ptr noundef %2) #0 {
  %4 = alloca ptr, align 8
  %5 = alloca ptr, align 8
  %6 = alloca ptr, align 8
  %7 = alloca ptr, align 8
  %8 = alloca ptr, align 8
  %9 = alloca i32, align 4
  %10 = alloca i32, align 4
  %11 = alloca i32, align 4
  %12 = alloca i32, align 4
  %13 = alloca i32, align 4
  %14 = alloca i32, align 4
  store ptr %0, ptr %4, align 8, !tbaa !52
  store ptr %1, ptr %5, align 8, !tbaa !52
  store ptr %2, ptr %6, align 8, !tbaa !29
  call void @llvm.lifetime.start.p0(i64 8, ptr %7) #8
  call void @llvm.lifetime.start.p0(i64 8, ptr %8) #8
  call void @llvm.lifetime.start.p0(i64 4, ptr %9) #8
  call void @llvm.lifetime.start.p0(i64 4, ptr %10) #8
  call void @llvm.lifetime.start.p0(i64 4, ptr %11) #8
  call void @llvm.lifetime.start.p0(i64 4, ptr %12) #8
  call void @llvm.lifetime.start.p0(i64 4, ptr %13) #8
  call void @llvm.lifetime.start.p0(i64 4, ptr %14) #8
  %15 = load ptr, ptr %4, align 8, !tbaa !52
  %16 = call i32 @Aig_ManCiNum(ptr noundef %15)
  %17 = load ptr, ptr %4, align 8, !tbaa !52
  %18 = call i32 @Aig_ManRegNum(ptr noundef %17)
  %19 = sub nsw i32 %16, %18
  store i32 %19, ptr %11, align 4, !tbaa !8
  %20 = load ptr, ptr %4, align 8, !tbaa !52
  %21 = call i32 @Aig_ManCoNum(ptr noundef %20)
  %22 = load ptr, ptr %4, align 8, !tbaa !52
  %23 = call i32 @Aig_ManRegNum(ptr noundef %22)
  %24 = sub nsw i32 %21, %23
  store i32 %24, ptr %12, align 4, !tbaa !8
  %25 = load ptr, ptr %5, align 8, !tbaa !52
  %26 = call i32 @Aig_ManCiNum(ptr noundef %25)
  %27 = load i32, ptr %11, align 4, !tbaa !8
  %28 = sdiv i32 %26, %27
  store i32 %28, ptr %10, align 4, !tbaa !8
  store i32 -1, ptr %13, align 4, !tbaa !8
  store i32 -1, ptr %14, align 4, !tbaa !8
  store i32 0, ptr %9, align 4, !tbaa !8
  br label %29

29:                                               ; preds = %63, %3
  %30 = load i32, ptr %9, align 4, !tbaa !8
  %31 = load ptr, ptr %5, align 8, !tbaa !52
  %32 = getelementptr inbounds nuw %struct.Aig_Man_t_, ptr %31, i32 0, i32 3
  %33 = load ptr, ptr %32, align 8, !tbaa !89
  %34 = call i32 @Vec_PtrSize(ptr noundef %33)
  %35 = icmp slt i32 %30, %34
  br i1 %35, label %36, label %42

36:                                               ; preds = %29
  %37 = load ptr, ptr %5, align 8, !tbaa !52
  %38 = getelementptr inbounds nuw %struct.Aig_Man_t_, ptr %37, i32 0, i32 3
  %39 = load ptr, ptr %38, align 8, !tbaa !89
  %40 = load i32, ptr %9, align 4, !tbaa !8
  %41 = call ptr @Vec_PtrEntry(ptr noundef %39, i32 noundef %40)
  store ptr %41, ptr %8, align 8, !tbaa !3
  br label %42

42:                                               ; preds = %36, %29
  %43 = phi i1 [ false, %29 ], [ true, %36 ]
  br i1 %43, label %44, label %66

44:                                               ; preds = %42
  %45 = load ptr, ptr %8, align 8, !tbaa !3
  %46 = getelementptr inbounds nuw %struct.Aig_Obj_t_, ptr %45, i32 0, i32 5
  %47 = load i32, ptr %46, align 4, !tbaa !27
  %48 = load ptr, ptr %6, align 8, !tbaa !29
  %49 = load ptr, ptr %5, align 8, !tbaa !52
  %50 = call i32 @Aig_ManCiNum(ptr noundef %49)
  %51 = sext i32 %50 to i64
  %52 = getelementptr inbounds i32, ptr %48, i64 %51
  %53 = load i32, ptr %52, align 4, !tbaa !8
  %54 = icmp eq i32 %47, %53
  br i1 %54, label %55, label %62

55:                                               ; preds = %44
  %56 = load i32, ptr %9, align 4, !tbaa !8
  %57 = load i32, ptr %12, align 4, !tbaa !8
  %58 = srem i32 %56, %57
  store i32 %58, ptr %13, align 4, !tbaa !8
  %59 = load i32, ptr %9, align 4, !tbaa !8
  %60 = load i32, ptr %12, align 4, !tbaa !8
  %61 = sdiv i32 %59, %60
  store i32 %61, ptr %14, align 4, !tbaa !8
  br label %66

62:                                               ; preds = %44
  br label %63

63:                                               ; preds = %62
  %64 = load i32, ptr %9, align 4, !tbaa !8
  %65 = add nsw i32 %64, 1
  store i32 %65, ptr %9, align 4, !tbaa !8
  br label %29, !llvm.loop !173

66:                                               ; preds = %55, %42
  %67 = load ptr, ptr %4, align 8, !tbaa !52
  %68 = call i32 @Aig_ManRegNum(ptr noundef %67)
  %69 = load i32, ptr %11, align 4, !tbaa !8
  %70 = load i32, ptr %14, align 4, !tbaa !8
  %71 = add nsw i32 %70, 1
  %72 = call ptr @Abc_CexAlloc(i32 noundef %68, i32 noundef %69, i32 noundef %71)
  store ptr %72, ptr %7, align 8, !tbaa !163
  %73 = load i32, ptr %13, align 4, !tbaa !8
  %74 = load ptr, ptr %7, align 8, !tbaa !163
  %75 = getelementptr inbounds nuw %struct.Abc_Cex_t_, ptr %74, i32 0, i32 0
  store i32 %73, ptr %75, align 4, !tbaa !164
  %76 = load i32, ptr %14, align 4, !tbaa !8
  %77 = load ptr, ptr %7, align 8, !tbaa !163
  %78 = getelementptr inbounds nuw %struct.Abc_Cex_t_, ptr %77, i32 0, i32 1
  store i32 %76, ptr %78, align 4, !tbaa !166
  store i32 0, ptr %9, align 4, !tbaa !8
  br label %79

79:                                               ; preds = %113, %66
  %80 = load i32, ptr %9, align 4, !tbaa !8
  %81 = load ptr, ptr %5, align 8, !tbaa !52
  %82 = call i32 @Aig_ManCiNum(ptr noundef %81)
  %83 = icmp slt i32 %80, %82
  br i1 %83, label %84, label %116

84:                                               ; preds = %79
  %85 = load ptr, ptr %6, align 8, !tbaa !29
  %86 = load i32, ptr %9, align 4, !tbaa !8
  %87 = sext i32 %86 to i64
  %88 = getelementptr inbounds i32, ptr %85, i64 %87
  %89 = load i32, ptr %88, align 4, !tbaa !8
  %90 = icmp ne i32 %89, 0
  br i1 %90, label %91, label %100

91:                                               ; preds = %84
  %92 = load ptr, ptr %7, align 8, !tbaa !163
  %93 = getelementptr inbounds nuw %struct.Abc_Cex_t_, ptr %92, i32 0, i32 5
  %94 = getelementptr inbounds [0 x i32], ptr %93, i64 0, i64 0
  %95 = load ptr, ptr %7, align 8, !tbaa !163
  %96 = getelementptr inbounds nuw %struct.Abc_Cex_t_, ptr %95, i32 0, i32 2
  %97 = load i32, ptr %96, align 4, !tbaa !168
  %98 = load i32, ptr %9, align 4, !tbaa !8
  %99 = add nsw i32 %97, %98
  call void @Abc_InfoSetBit(ptr noundef %94, i32 noundef %99)
  br label %100

100:                                              ; preds = %91, %84
  %101 = load ptr, ptr %7, align 8, !tbaa !163
  %102 = getelementptr inbounds nuw %struct.Abc_Cex_t_, ptr %101, i32 0, i32 2
  %103 = load i32, ptr %102, align 4, !tbaa !168
  %104 = load i32, ptr %9, align 4, !tbaa !8
  %105 = add nsw i32 %103, %104
  %106 = load ptr, ptr %7, align 8, !tbaa !163
  %107 = getelementptr inbounds nuw %struct.Abc_Cex_t_, ptr %106, i32 0, i32 4
  %108 = load i32, ptr %107, align 4, !tbaa !174
  %109 = sub nsw i32 %108, 1
  %110 = icmp eq i32 %105, %109
  br i1 %110, label %111, label %112

111:                                              ; preds = %100
  br label %116

112:                                              ; preds = %100
  br label %113

113:                                              ; preds = %112
  %114 = load i32, ptr %9, align 4, !tbaa !8
  %115 = add nsw i32 %114, 1
  store i32 %115, ptr %9, align 4, !tbaa !8
  br label %79, !llvm.loop !175

116:                                              ; preds = %111, %79
  %117 = load ptr, ptr %4, align 8, !tbaa !52
  %118 = load ptr, ptr %7, align 8, !tbaa !163
  %119 = call i32 @Saig_ManVerifyCex(ptr noundef %117, ptr noundef %118)
  %120 = icmp ne i32 %119, 0
  br i1 %120, label %124, label %121

121:                                              ; preds = %116
  %122 = call i32 (ptr, ...) @printf(ptr noundef @.str.10)
  %123 = load ptr, ptr %7, align 8, !tbaa !163
  call void @Abc_CexFree(ptr noundef %123)
  store ptr null, ptr %7, align 8, !tbaa !163
  br label %124

124:                                              ; preds = %121, %116
  %125 = load ptr, ptr %7, align 8, !tbaa !163
  call void @llvm.lifetime.end.p0(i64 4, ptr %14) #8
  call void @llvm.lifetime.end.p0(i64 4, ptr %13) #8
  call void @llvm.lifetime.end.p0(i64 4, ptr %12) #8
  call void @llvm.lifetime.end.p0(i64 4, ptr %11) #8
  call void @llvm.lifetime.end.p0(i64 4, ptr %10) #8
  call void @llvm.lifetime.end.p0(i64 4, ptr %9) #8
  call void @llvm.lifetime.end.p0(i64 8, ptr %8) #8
  call void @llvm.lifetime.end.p0(i64 8, ptr %7) #8
  ret ptr %125
}