; Function Attrs: nounwind uwtable
define noundef ptr @Fra_SmlCopyCounterExample(ptr noundef %0, ptr noundef readonly captures(none) %1, ptr noundef readonly captures(none) %2) local_unnamed_addr #6 {
  %4 = getelementptr i8, ptr %0, i64 136
  %.val45 = load i32, ptr %4, align 8, !tbaa !28
  %5 = getelementptr i8, ptr %0, i64 104
  %.val48 = load i32, ptr %5, align 8, !tbaa !39
  %6 = sub nsw i32 %.val45, %.val48
  %7 = getelementptr i8, ptr %0, i64 140
  %.val51 = load i32, ptr %7, align 4, !tbaa !28
  %8 = sub nsw i32 %.val51, %.val48
  %9 = getelementptr i8, ptr %1, i64 136
  %10 = getelementptr inbounds nuw i8, ptr %1, i64 24
  %11 = load ptr, ptr %10, align 8, !tbaa !80
  %12 = getelementptr i8, ptr %11, i64 4
  %.val49 = load i32, ptr %12, align 4, !tbaa !46
  %13 = icmp sgt i32 %.val49, 0
  br i1 %13, label %.lr.ph, label %.critedge

.lr.ph:                                           ; preds = %3
  %14 = getelementptr i8, ptr %11, i64 8
  %.val50 = load ptr, ptr %14, align 8, !tbaa !51
  %.val43 = load i32, ptr %9, align 8, !tbaa !28
  %15 = sext i32 %.val43 to i64
  %16 = getelementptr inbounds i32, ptr %2, i64 %15
  %17 = load i32, ptr %16, align 4, !tbaa !28
  %wide.trip.count = zext nneg i32 %.val49 to i64
  br label %18

18:                                               ; preds = %.lr.ph, %28
  %indvars.iv = phi i64 [ 0, %.lr.ph ], [ %indvars.iv.next, %28 ]
  %19 = getelementptr inbounds nuw ptr, ptr %.val50, i64 %indvars.iv
  %20 = load ptr, ptr %19, align 8, !tbaa !65
  %21 = getelementptr inbounds nuw i8, ptr %20, i64 36
  %22 = load i32, ptr %21, align 4, !tbaa !22
  %23 = icmp eq i32 %22, %17
  br i1 %23, label %24, label %28

24:                                               ; preds = %18
  %25 = trunc nuw nsw i64 %indvars.iv to i32
  %26 = srem i32 %25, %8
  %27 = sdiv i32 %25, %8
  br label %.critedge

28:                                               ; preds = %18
  %indvars.iv.next = add nuw nsw i64 %indvars.iv, 1
  %exitcond.not = icmp eq i64 %indvars.iv.next, %wide.trip.count
  br i1 %exitcond.not, label %.critedge, label %18, !llvm.loop !159

.critedge:                                        ; preds = %28, %3, %24
  %.039 = phi i32 [ %26, %24 ], [ -1, %3 ], [ -1, %28 ]
  %.0 = phi i32 [ %27, %24 ], [ -1, %3 ], [ -1, %28 ]
  %29 = add nsw i32 %.0, 1
  %30 = tail call ptr @Abc_CexAlloc(i32 noundef %.val48, i32 noundef %6, i32 noundef %29) #22
  store i32 %.039, ptr %30, align 4, !tbaa !151
  %31 = getelementptr inbounds nuw i8, ptr %30, i64 4
  store i32 %.0, ptr %31, align 4, !tbaa !153
  %.val54 = load i32, ptr %9, align 8, !tbaa !28
  %32 = icmp sgt i32 %.val54, 0
  br i1 %32, label %.lr.ph56, label %._crit_edge

.lr.ph56:                                         ; preds = %.critedge
  %33 = getelementptr inbounds nuw i8, ptr %30, i64 20
  %34 = getelementptr inbounds nuw i8, ptr %30, i64 8
  %35 = getelementptr inbounds nuw i8, ptr %30, i64 16
  %.pre63.pre = load i32, ptr %34, align 4, !tbaa !155
  br label %39

36:                                               ; preds = %51
  %indvars.iv.next61 = add nuw nsw i64 %indvars.iv60, 1
  %.val = load i32, ptr %9, align 8, !tbaa !28
  %37 = sext i32 %.val to i64
  %38 = icmp slt i64 %indvars.iv.next61, %37
  br i1 %38, label %39, label %._crit_edge, !llvm.loop !160

39:                                               ; preds = %.lr.ph56, %36
  %.pre63 = phi i32 [ %.pre63.pre, %.lr.ph56 ], [ %.pre6364, %36 ]
  %indvars.iv60 = phi i64 [ 0, %.lr.ph56 ], [ %indvars.iv.next61, %36 ]
  %indvars62 = trunc i64 %indvars.iv60 to i32
  %40 = getelementptr inbounds nuw i32, ptr %2, i64 %indvars.iv60
  %41 = load i32, ptr %40, align 4, !tbaa !28
  %.not = icmp eq i32 %41, 0
  br i1 %.not, label %51, label %42

42:                                               ; preds = %39
  %43 = add nsw i32 %.pre63, %indvars62
  %44 = and i32 %43, 31
  %45 = shl nuw i32 1, %44
  %46 = ashr i32 %43, 5
  %47 = sext i32 %46 to i64
  %48 = getelementptr inbounds i32, ptr %33, i64 %47
  %49 = load i32, ptr %48, align 4, !tbaa !28
  %50 = or i32 %45, %49
  store i32 %50, ptr %48, align 4, !tbaa !28
  %.pre = load i32, ptr %34, align 4, !tbaa !155
  br label %51

51:                                               ; preds = %42, %39
  %.pre6364 = phi i32 [ %.pre, %42 ], [ %.pre63, %39 ]
  %52 = add nsw i32 %.pre6364, %indvars62
  %53 = load i32, ptr %35, align 4, !tbaa !161
  %54 = add nsw i32 %53, -1
  %55 = icmp eq i32 %52, %54
  br i1 %55, label %._crit_edge, label %36

._crit_edge:                                      ; preds = %36, %51, %.critedge
  %56 = tail call i32 @Saig_ManVerifyCex(ptr noundef %0, ptr noundef nonnull %30) #22
  %.not42 = icmp eq i32 %56, 0
  br i1 %.not42, label %57, label %58

57:                                               ; preds = %._crit_edge
  %puts = tail call i32 @puts(ptr nonnull dereferenceable(1) @str.2)
  tail call void @Abc_CexFree(ptr noundef nonnull %30) #22
  br label %58

58:                                               ; preds = %57, %._crit_edge
  %.040 = phi ptr [ %30, %._crit_edge ], [ null, %57 ]
  ret ptr %.040
}